; ModuleID = '45/472.c'
source_filename = "45/472.c"
target datalayout = "e-m:e-p270:32:32-p271:32:32-p272:64:64-i64:64-f80:128-n8:16:32:64-S128"
target triple = "x86_64-pc-linux-gnu"

@.str = private unnamed_addr constant [5 x i8] c"%s%s\00", align 1
@.str.1 = private unnamed_addr constant [4 x i8] c"%d\0A\00", align 1

; Function Attrs: noinline nounwind uwtable
define dso_local void @main() #0 {
  %1 = alloca [50 x i8], align 16
  %2 = alloca [50 x i8], align 16
  %3 = alloca i8*, align 8
  %4 = alloca i8*, align 8
  %5 = alloca i8*, align 8
  %6 = alloca i8*, align 8
  %7 = alloca i32, align 4
  %8 = alloca i32, align 4
  %9 = alloca i32, align 4
  %10 = getelementptr inbounds [50 x i8], [50 x i8]* %1, i64 0, i64 0
  store i8* %10, i8** %5, align 8
  %11 = getelementptr inbounds [50 x i8], [50 x i8]* %2, i64 0, i64 0
  store i8* %11, i8** %6, align 8
  %12 = load i8*, i8** %5, align 8
  %13 = load i8*, i8** %6, align 8
  %14 = call i32 (i8*, ...) @__isoc99_scanf(i8* getelementptr inbounds ([5 x i8], [5 x i8]* @.str, i64 0, i64 0), i8* %12, i8* %13)
  %15 = load i8*, i8** %5, align 8
  %16 = call i64 @strlen(i8* %15) #3
  %17 = trunc i64 %16 to i32
  store i32 %17, i32* %8, align 4
  %18 = load i8*, i8** %6, align 8
  %19 = call i64 @strlen(i8* %18) #3
  %20 = trunc i64 %19 to i32
  store i32 %20, i32* %9, align 4
  %21 = load i8*, i8** %6, align 8
  store i8* %21, i8** %3, align 8
  br label %22

22:                                               ; preds = %80, %0
  %23 = load i8*, i8** %3, align 8
  %24 = load i8*, i8** %6, align 8
  %25 = load i32, i32* %9, align 4
  %26 = sext i32 %25 to i64
  %27 = getelementptr inbounds i8, i8* %24, i64 %26
  %28 = getelementptr inbounds i8, i8* %27, i64 -1
  %29 = icmp ule i8* %23, %28
  br i1 %29, label %30, label %83

30:                                               ; preds = %22
  %31 = load i8*, i8** %3, align 8
  %32 = load i8, i8* %31, align 1
  %33 = sext i8 %32 to i32
  %34 = load i8*, i8** %5, align 8
  %35 = load i8, i8* %34, align 1
  %36 = sext i8 %35 to i32
  %37 = icmp eq i32 %33, %36
  br i1 %37, label %38, label %79

38:                                               ; preds = %30
  store i32 0, i32* %7, align 4
  %39 = load i8*, i8** %3, align 8
  %40 = getelementptr inbounds i8, i8* %39, i64 1
  store i8* %40, i8** %4, align 8
  br label %41

41:                                               ; preds = %65, %38
  %42 = load i8*, i8** %4, align 8
  %43 = load i8*, i8** %3, align 8
  %44 = load i32, i32* %8, align 4
  %45 = sext i32 %44 to i64
  %46 = getelementptr inbounds i8, i8* %43, i64 %45
  %47 = getelementptr inbounds i8, i8* %46, i64 -1
  %48 = icmp ule i8* %42, %47
  br i1 %48, label %49, label %68

49:                                               ; preds = %41
  %50 = load i8*, i8** %4, align 8
  %51 = load i8, i8* %50, align 1
  %52 = sext i8 %51 to i32
  %53 = load i8*, i8** %5, align 8
  %54 = load i8*, i8** %4, align 8
  %55 = load i8*, i8** %3, align 8
  %56 = ptrtoint i8* %54 to i64
  %57 = ptrtoint i8* %55 to i64
  %58 = sub i64 %56, %57
  %59 = getelementptr inbounds i8, i8* %53, i64 %58
  %60 = load i8, i8* %59, align 1
  %61 = sext i8 %60 to i32
  %62 = icmp ne i32 %52, %61
  br i1 %62, label %63, label %64

63:                                               ; preds = %49
  store i32 1, i32* %7, align 4
  br label %64

64:                                               ; preds = %63, %49
  br label %65

65:                                               ; preds = %64
  %66 = load i8*, i8** %4, align 8
  %67 = getelementptr inbounds i8, i8* %66, i32 1
  store i8* %67, i8** %4, align 8
  br label %41

68:                                               ; preds = %41
  %69 = load i32, i32* %7, align 4
  %70 = icmp eq i32 %69, 0
  br i1 %70, label %71, label %78

71:                                               ; preds = %68
  %72 = load i8*, i8** %3, align 8
  %73 = load i8*, i8** %6, align 8
  %74 = ptrtoint i8* %72 to i64
  %75 = ptrtoint i8* %73 to i64
  %76 = sub i64 %74, %75
  %77 = call i32 (i8*, ...) @printf(i8* getelementptr inbounds ([4 x i8], [4 x i8]* @.str.1, i64 0, i64 0), i64 %76)
  br label %83

78:                                               ; preds = %68
  br label %79

79:                                               ; preds = %78, %30
  br label %80

80:                                               ; preds = %79
  %81 = load i8*, i8** %3, align 8
  %82 = getelementptr inbounds i8, i8* %81, i32 1
  store i8* %82, i8** %3, align 8
  br label %22

83:                                               ; preds = %71, %22
  ret void
}

declare dso_local i32 @__isoc99_scanf(i8*, ...) #1

; Function Attrs: nounwind readonly
declare dso_local i64 @strlen(i8*) #2

declare dso_local i32 @printf(i8*, ...) #1


!llvm.module.flags = !{!0}
!llvm.ident = !{!1}

!0 = !{i32 1, !"wchar_size", i32 4}
!1 = !{!"clang version 10.0.0-4ubuntu1 "}
